; Function Attrs: inlinehint mustprogress nounwind optsize uwtable
define internal noundef ptr @"_ZZN8nanobind6detail11func_createILb0ELb1EZL30nanobind_init_test_ndarray_extRNS_7module_EE4$_38iJNS_7ndarrayIJfNS_8c_contigENS0_5shapeIJLl2ELl2EEEEEEEEJLm0EEJNS_5scopeENS_4nameENS_3argEEEEP7_objectOT1_PFT2_DpT3_ESt16integer_sequenceImJXspT4_EEEDpRKT5_ENUlPvPSE_PhNS_9rv_policyEPNS0_12cleanup_listEE_8__invokeESS_ST_SU_SV_SX_"(ptr readnone captures(none) %0, ptr noundef readonly captures(none) %1, ptr noundef readonly captures(none) %2, i32 %3, ptr noundef %4) #8 align 2 personality ptr @__gxx_personality_v0 {
  %6 = alloca %"struct.nanobind::detail::tuple.376", align 8
  call void @llvm.lifetime.start.p0(i64 56, ptr nonnull %6) #22
  call void @llvm.memset.p0.i64(ptr noundef nonnull align 8 dereferenceable(56) %6, i8 0, i64 56, i1 false)
  %7 = load ptr, ptr %1, align 8, !tbaa !93
  %8 = load i8, ptr %2, align 1, !tbaa !60
  %9 = call noundef zeroext i1 @_ZN8nanobind6detail11type_casterINS_7ndarrayIJfNS_8c_contigENS0_5shapeIJLl2ELl2EEEEEEEiE11from_pythonENS_6handleEhPNS0_12cleanup_listE(ptr noundef nonnull align 8 dereferenceable(56) %6, ptr %7, i8 noundef zeroext %8, ptr noundef %4) #23
  br i1 %9, label %10, label %"_ZZN8nanobind6detail11func_createILb0ELb1EZL30nanobind_init_test_ndarray_extRNS_7module_EE4$_38iJNS_7ndarrayIJfNS_8c_contigENS0_5shapeIJLl2ELl2EEEEEEEEJLm0EEJNS_5scopeENS_4nameENS_3argEEEEP7_objectOT1_PFT2_DpT3_ESt16integer_sequenceImJXspT4_EEEDpRKT5_ENKUlPvPSE_PhNS_9rv_policyEPNS0_12cleanup_listEE_clESS_ST_SU_SV_SX_.exit"

10:                                               ; preds = %5
  %11 = load ptr, ptr %6, align 8, !tbaa !201
  call void @llvm.memset.p0.i64(ptr noundef nonnull align 8 dereferenceable(56) %6, i8 0, i64 56, i1 false)
  %12 = invoke ptr @PyLong_FromLong(i64 noundef 0) #21
          to label %_ZN8nanobind6detail11type_casterIiiE8from_cppEiNS_9rv_policyEPNS0_12cleanup_listE.exit unwind label %13

13:                                               ; preds = %10
  %14 = landingpad { ptr, i32 }
          catch ptr null
  %15 = extractvalue { ptr, i32 } %14, 0
  call void @__clang_call_terminate(ptr %15) #24
  unreachable

_ZN8nanobind6detail11type_casterIiiE8from_cppEiNS_9rv_policyEPNS0_12cleanup_listE.exit: ; preds = %10
  call void @_ZN8nanobind6detail15ndarray_dec_refEPNS0_14ndarray_handleE(ptr noundef %11) #23
  br label %"_ZZN8nanobind6detail11func_createILb0ELb1EZL30nanobind_init_test_ndarray_extRNS_7module_EE4$_38iJNS_7ndarrayIJfNS_8c_contigENS0_5shapeIJLl2ELl2EEEEEEEEJLm0EEJNS_5scopeENS_4nameENS_3argEEEEP7_objectOT1_PFT2_DpT3_ESt16integer_sequenceImJXspT4_EEEDpRKT5_ENKUlPvPSE_PhNS_9rv_policyEPNS0_12cleanup_listEE_clESS_ST_SU_SV_SX_.exit"

"_ZZN8nanobind6detail11func_createILb0ELb1EZL30nanobind_init_test_ndarray_extRNS_7module_EE4$_38iJNS_7ndarrayIJfNS_8c_contigENS0_5shapeIJLl2ELl2EEEEEEEEJLm0EEJNS_5scopeENS_4nameENS_3argEEEEP7_objectOT1_PFT2_DpT3_ESt16integer_sequenceImJXspT4_EEEDpRKT5_ENKUlPvPSE_PhNS_9rv_policyEPNS0_12cleanup_listEE_clESS_ST_SU_SV_SX_.exit": ; preds = %5, %_ZN8nanobind6detail11type_casterIiiE8from_cppEiNS_9rv_policyEPNS0_12cleanup_listE.exit
  %.0.i = phi ptr [ %12, %_ZN8nanobind6detail11type_casterIiiE8from_cppEiNS_9rv_policyEPNS0_12cleanup_listE.exit ], [ inttoptr (i64 1 to ptr), %5 ]
  %16 = load ptr, ptr %6, align 8, !tbaa !201
  call void @_ZN8nanobind6detail15ndarray_dec_refEPNS0_14ndarray_handleE(ptr noundef %16) #23
  call void @llvm.lifetime.end.p0(i64 56, ptr nonnull %6) #22
  ret ptr %.0.i
}